target datalayout = "e-m:e-p270:32:32-p271:32:32-p272:64:64-i64:64-i128:128-f80:128-n8:16:32:64-S128"
target triple = "x86_64-pc-linux-gnu"

%struct.AVFormatContext = type { ptr, ptr, ptr, ptr, ptr, i32, i32, ptr, i32, ptr, i32, ptr, ptr, i64, i64, i64, i32, i32, i32, i64, i64, ptr, i32, i32, ptr, i32, i32, i32, i32, ptr, i64, i32, i32, %struct.AVIOInterruptCB, i32, i32, i32, i32, i64, i32, i32, i32, i32, i32, i32, i32, i32, i32, i32, i32, i32, i64, i32, i32, i32, i32, i32, ptr, ptr, ptr, ptr, i32, ptr, ptr, ptr, ptr, i32, ptr, ptr, i64, ptr, ptr, ptr, i64 }
%struct.AVIOInterruptCB = type { ptr, ptr }
%struct.AVStream = type { ptr, i32, i32, ptr, ptr, %struct.AVRational, i64, i64, i64, i32, i32, %struct.AVRational, ptr, %struct.AVRational, %struct.AVPacket, i32, %struct.AVRational, i32 }
%struct.AVPacket = type { ptr, i64, i64, ptr, i32, i32, i32, ptr, i32, i64, i64, ptr, ptr, %struct.AVRational }
%struct.AVRational = type { i32, i32 }
%struct.AVCodecParameters = type { i32, i32, i32, ptr, i32, ptr, i32, i32, i64, i32, i32, i32, i32, i32, i32, %struct.AVRational, %struct.AVRational, i32, i32, i32, i32, i32, i32, i32, %struct.AVChannelLayout, i32, i32, i32, i32, i32, i32 }
%struct.AVChannelLayout = type { i32, i32, %union.anon, ptr }
%union.anon = type { i64 }
%struct.RCWTContext = type { %struct.FFDemuxSubtitlesQueue }
%struct.FFDemuxSubtitlesQueue = type { ptr, i32, i32, i32, i32, i32 }

@.str.2 = private unnamed_addr constant [69 x i8] c"RCWT format version is not compatible (only version 0.001 is known)\0A\00", align 1
@.str.3 = private unnamed_addr constant [45 x i8] c"RCWT writer application: %02X version: %02x\0A\00", align 1

; Function Attrs: alwaysinline nounwind uwtable
define internal i64 @avio_tell(ptr noundef %0) #4 {
  %2 = alloca ptr, align 8
  store ptr %0, ptr %2, align 8, !tbaa !58
  %3 = load ptr, ptr %2, align 8, !tbaa !58
  %4 = call i64 @avio_seek(ptr noundef %3, i64 noundef 0, i32 noundef 1)
  ret i64 %4
}

; Function Attrs: alwaysinline nounwind willreturn memory(none) uwtable
define internal zeroext i16 @av_bswap16(i16 noundef zeroext %0) #2 {
  %2 = alloca i16, align 2
  store i16 %0, ptr %2, align 2, !tbaa !56
  %3 = load i16, ptr %2, align 2, !tbaa !56
  %4 = zext i16 %3 to i32
  %5 = ashr i32 %4, 8
  %6 = load i16, ptr %2, align 2, !tbaa !56
  %7 = zext i16 %6 to i32
  %8 = shl i32 %7, 8
  %9 = or i32 %5, %8
  %10 = trunc i32 %9 to i16
  store i16 %10, ptr %2, align 2, !tbaa !56
  %11 = load i16, ptr %2, align 2, !tbaa !56
  ret i16 %11
}

; Function Attrs: nounwind uwtable
define internal i32 @rcwt_read_header(ptr noundef %0) #0 {
  %2 = alloca i32, align 4
  %3 = alloca ptr, align 8
  %4 = alloca ptr, align 8
  %5 = alloca ptr, align 8
  %6 = alloca [11 x i8], align 1
  %7 = alloca i32, align 4
  %8 = alloca i32, align 4
  %9 = alloca ptr, align 8
  %10 = alloca i64, align 8
  %11 = alloca i64, align 8
  %12 = alloca i32, align 4
  store ptr %0, ptr %3, align 8, !tbaa !15
  call void @llvm.lifetime.start.p0(i64 8, ptr %4) #6
  %13 = load ptr, ptr %3, align 8, !tbaa !15
  %14 = getelementptr inbounds nuw %struct.AVFormatContext, ptr %13, i32 0, i32 3
  %15 = load ptr, ptr %14, align 8, !tbaa !17
  store ptr %15, ptr %4, align 8, !tbaa !32
  call void @llvm.lifetime.start.p0(i64 8, ptr %5) #6
  call void @llvm.lifetime.start.p0(i64 11, ptr %6) #6
  call void @llvm.lifetime.start.p0(i64 4, ptr %7) #6
  %16 = load ptr, ptr %3, align 8, !tbaa !15
  %17 = getelementptr inbounds nuw %struct.AVFormatContext, ptr %16, i32 0, i32 4
  %18 = load ptr, ptr %17, align 8, !tbaa !34
  %19 = getelementptr inbounds [11 x i8], ptr %6, i64 0, i64 0
  %20 = call i32 @ffio_read_size(ptr noundef %18, ptr noundef %19, i32 noundef 11)
  store i32 %20, ptr %7, align 4, !tbaa !35
  %21 = load i32, ptr %7, align 4, !tbaa !35
  %22 = icmp slt i32 %21, 0
  br i1 %22, label %23, label %25

23:                                               ; preds = %1
  %24 = load i32, ptr %7, align 4, !tbaa !35
  store i32 %24, ptr %2, align 4
  store i32 1, ptr %8, align 4
  br label %113

25:                                               ; preds = %1
  %26 = getelementptr inbounds [11 x i8], ptr %6, i64 0, i64 0
  %27 = getelementptr inbounds i8, ptr %26, i64 6
  %28 = load i16, ptr %27, align 1, !tbaa !14
  %29 = call zeroext i16 @av_bswap16(i16 noundef zeroext %28) #5
  %30 = zext i16 %29 to i32
  %31 = icmp ne i32 %30, 1
  br i1 %31, label %32, label %34

32:                                               ; preds = %25
  %33 = load ptr, ptr %3, align 8, !tbaa !15
  call void (ptr, i32, ptr, ...) @av_log(ptr noundef %33, i32 noundef 16, ptr noundef @.str.2)
  store i32 -1094995529, ptr %2, align 4
  store i32 1, ptr %8, align 4
  br label %113

34:                                               ; preds = %25
  %35 = load ptr, ptr %3, align 8, !tbaa !15
  %36 = getelementptr inbounds [11 x i8], ptr %6, i64 0, i64 3
  %37 = load i8, ptr %36, align 1, !tbaa !14
  %38 = zext i8 %37 to i32
  %39 = getelementptr inbounds [11 x i8], ptr %6, i64 0, i64 5
  %40 = load i8, ptr %39, align 1, !tbaa !14
  %41 = zext i8 %40 to i32
  call void (ptr, i32, ptr, ...) @av_log(ptr noundef %35, i32 noundef 48, ptr noundef @.str.3, i32 noundef %38, i32 noundef %41)
  %42 = load ptr, ptr %3, align 8, !tbaa !15
  %43 = call ptr @avformat_new_stream(ptr noundef %42, ptr noundef null)
  store ptr %43, ptr %5, align 8, !tbaa !36
  %44 = load ptr, ptr %5, align 8, !tbaa !36
  %45 = icmp ne ptr %44, null
  br i1 %45, label %47, label %46

46:                                               ; preds = %34
  store i32 -12, ptr %2, align 4
  store i32 1, ptr %8, align 4
  br label %113

47:                                               ; preds = %34
  %48 = load ptr, ptr %5, align 8, !tbaa !36
  %49 = getelementptr inbounds nuw %struct.AVStream, ptr %48, i32 0, i32 3
  %50 = load ptr, ptr %49, align 8, !tbaa !38
  %51 = getelementptr inbounds nuw %struct.AVCodecParameters, ptr %50, i32 0, i32 0
  store i32 3, ptr %51, align 8, !tbaa !45
  %52 = load ptr, ptr %5, align 8, !tbaa !36
  %53 = getelementptr inbounds nuw %struct.AVStream, ptr %52, i32 0, i32 3
  %54 = load ptr, ptr %53, align 8, !tbaa !38
  %55 = getelementptr inbounds nuw %struct.AVCodecParameters, ptr %54, i32 0, i32 1
  store i32 94218, ptr %55, align 4, !tbaa !48
  %56 = load ptr, ptr %5, align 8, !tbaa !36
  call void @avpriv_set_pts_info(ptr noundef %56, i32 noundef 64, i32 noundef 1, i32 noundef 1000)
  br label %57

57:                                               ; preds = %108, %106, %47
  %58 = load ptr, ptr %3, align 8, !tbaa !15
  %59 = getelementptr inbounds nuw %struct.AVFormatContext, ptr %58, i32 0, i32 4
  %60 = load ptr, ptr %59, align 8, !tbaa !34
  %61 = call i32 @avio_feof(ptr noundef %60)
  %62 = icmp ne i32 %61, 0
  %63 = xor i1 %62, true
  br i1 %63, label %64, label %109

64:                                               ; preds = %57
  call void @llvm.lifetime.start.p0(i64 8, ptr %9) #6
  call void @llvm.lifetime.start.p0(i64 8, ptr %10) #6
  %65 = load ptr, ptr %3, align 8, !tbaa !15
  %66 = getelementptr inbounds nuw %struct.AVFormatContext, ptr %65, i32 0, i32 4
  %67 = load ptr, ptr %66, align 8, !tbaa !34
  %68 = call i64 @avio_tell(ptr noundef %67)
  store i64 %68, ptr %10, align 8, !tbaa !49
  call void @llvm.lifetime.start.p0(i64 8, ptr %11) #6
  %69 = load ptr, ptr %3, align 8, !tbaa !15
  %70 = getelementptr inbounds nuw %struct.AVFormatContext, ptr %69, i32 0, i32 4
  %71 = load ptr, ptr %70, align 8, !tbaa !34
  %72 = call i64 @avio_rl64(ptr noundef %71)
  store i64 %72, ptr %11, align 8, !tbaa !49
  call void @llvm.lifetime.start.p0(i64 4, ptr %12) #6
  %73 = load ptr, ptr %3, align 8, !tbaa !15
  %74 = getelementptr inbounds nuw %struct.AVFormatContext, ptr %73, i32 0, i32 4
  %75 = load ptr, ptr %74, align 8, !tbaa !34
  %76 = call i32 @avio_rl16(ptr noundef %75)
  store i32 %76, ptr %12, align 4, !tbaa !35
  %77 = load i32, ptr %12, align 4, !tbaa !35
  %78 = icmp eq i32 %77, 0
  br i1 %78, label %79, label %80

79:                                               ; preds = %64
  store i32 2, ptr %8, align 4
  br label %106, !llvm.loop !50

80:                                               ; preds = %64
  %81 = load ptr, ptr %4, align 8, !tbaa !32
  %82 = getelementptr inbounds nuw %struct.RCWTContext, ptr %81, i32 0, i32 0
  %83 = call ptr @ff_subtitles_queue_insert(ptr noundef %82, ptr noundef null, i64 noundef 0, i32 noundef 0)
  store ptr %83, ptr %9, align 8, !tbaa !52
  %84 = load ptr, ptr %9, align 8, !tbaa !52
  %85 = icmp ne ptr %84, null
  br i1 %85, label %87, label %86

86:                                               ; preds = %80
  store i32 -12, ptr %2, align 4
  store i32 1, ptr %8, align 4
  br label %106

87:                                               ; preds = %80
  %88 = load ptr, ptr %3, align 8, !tbaa !15
  %89 = getelementptr inbounds nuw %struct.AVFormatContext, ptr %88, i32 0, i32 4
  %90 = load ptr, ptr %89, align 8, !tbaa !34
  %91 = load ptr, ptr %9, align 8, !tbaa !52
  %92 = load i32, ptr %12, align 4, !tbaa !35
  %93 = mul nsw i32 %92, 3
  %94 = call i32 @av_get_packet(ptr noundef %90, ptr noundef %91, i32 noundef %93)
  store i32 %94, ptr %7, align 4, !tbaa !35
  %95 = load i32, ptr %7, align 4, !tbaa !35
  %96 = icmp slt i32 %95, 0
  br i1 %96, label %97, label %99

97:                                               ; preds = %87
  %98 = load i32, ptr %7, align 4, !tbaa !35
  store i32 %98, ptr %2, align 4
  store i32 1, ptr %8, align 4
  br label %106

99:                                               ; preds = %87
  %100 = load i64, ptr %10, align 8, !tbaa !49
  %101 = load ptr, ptr %9, align 8, !tbaa !52
  %102 = getelementptr inbounds nuw %struct.AVPacket, ptr %101, i32 0, i32 10
  store i64 %100, ptr %102, align 8, !tbaa !54
  %103 = load i64, ptr %11, align 8, !tbaa !49
  %104 = load ptr, ptr %9, align 8, !tbaa !52
  %105 = getelementptr inbounds nuw %struct.AVPacket, ptr %104, i32 0, i32 1
  store i64 %103, ptr %105, align 8, !tbaa !55
  store i32 0, ptr %8, align 4
  br label %106

106:                                              ; preds = %99, %97, %86, %79
  call void @llvm.lifetime.end.p0(i64 4, ptr %12) #6
  call void @llvm.lifetime.end.p0(i64 8, ptr %11) #6
  call void @llvm.lifetime.end.p0(i64 8, ptr %10) #6
  call void @llvm.lifetime.end.p0(i64 8, ptr %9) #6
  %107 = load i32, ptr %8, align 4
  switch i32 %107, label %113 [
    i32 0, label %108
    i32 2, label %57
  ]

108:                                              ; preds = %106
  br label %57, !llvm.loop !50

109:                                              ; preds = %57
  %110 = load ptr, ptr %3, align 8, !tbaa !15
  %111 = load ptr, ptr %4, align 8, !tbaa !32
  %112 = getelementptr inbounds nuw %struct.RCWTContext, ptr %111, i32 0, i32 0
  call void @ff_subtitles_queue_finalize(ptr noundef %110, ptr noundef %112)
  store i32 0, ptr %2, align 4
  store i32 1, ptr %8, align 4
  br label %113

113:                                              ; preds = %109, %106, %46, %32, %23
  call void @llvm.lifetime.end.p0(i64 4, ptr %7) #6
  call void @llvm.lifetime.end.p0(i64 11, ptr %6) #6
  call void @llvm.lifetime.end.p0(i64 8, ptr %5) #6
  call void @llvm.lifetime.end.p0(i64 8, ptr %4) #6
  %114 = load i32, ptr %2, align 4
  ret i32 %114
}