; Function Attrs: nounwind uwtable
define internal range(i32 -2147483648, 1) i32 @rcwt_read_header(ptr noundef %0) #1 {
  %2 = alloca [11 x i8], align 1
  %3 = getelementptr inbounds nuw i8, ptr %0, i64 24
  %4 = load ptr, ptr %3, align 8, !tbaa !13
  call void @llvm.lifetime.start.p0(i64 11, ptr nonnull %2) #4
  %5 = getelementptr inbounds nuw i8, ptr %0, i64 32
  %6 = load ptr, ptr %5, align 8, !tbaa !28
  %7 = call i32 @ffio_read_size(ptr noundef %6, ptr noundef nonnull %2, i32 noundef 11) #4
  %8 = icmp slt i32 %7, 0
  br i1 %8, label %.thread, label %9

9:                                                ; preds = %1
  %10 = getelementptr inbounds nuw i8, ptr %2, i64 6
  %11 = load i16, ptr %10, align 1, !tbaa !12
  %.not = icmp eq i16 %11, 256
  br i1 %.not, label %13, label %12

12:                                               ; preds = %9
  call void (ptr, i32, ptr, ...) @av_log(ptr noundef nonnull %0, i32 noundef 16, ptr noundef nonnull @.str.2) #4
  br label %.thread

13:                                               ; preds = %9
  %14 = getelementptr inbounds nuw i8, ptr %2, i64 3
  %15 = load i8, ptr %14, align 1, !tbaa !12
  %16 = zext i8 %15 to i32
  %17 = getelementptr inbounds nuw i8, ptr %2, i64 5
  %18 = load i8, ptr %17, align 1, !tbaa !12
  %19 = zext i8 %18 to i32
  call void (ptr, i32, ptr, ...) @av_log(ptr noundef nonnull %0, i32 noundef 48, ptr noundef nonnull @.str.3, i32 noundef %16, i32 noundef %19) #4
  %20 = call ptr @avformat_new_stream(ptr noundef nonnull %0, ptr noundef null) #4
  %.not36 = icmp eq ptr %20, null
  br i1 %.not36, label %.thread, label %21

21:                                               ; preds = %13
  %22 = getelementptr inbounds nuw i8, ptr %20, i64 16
  %23 = load ptr, ptr %22, align 8, !tbaa !29
  store i32 3, ptr %23, align 8, !tbaa !36
  %24 = getelementptr inbounds nuw i8, ptr %23, i64 4
  store i32 94218, ptr %24, align 4, !tbaa !39
  call void @avpriv_set_pts_info(ptr noundef nonnull %20, i32 noundef 64, i32 noundef 1, i32 noundef 1000) #4
  %25 = load ptr, ptr %5, align 8, !tbaa !28
  %26 = call i32 @avio_feof(ptr noundef %25) #4
  %.not3741 = icmp eq i32 %26, 0
  br i1 %.not3741, label %.lr.ph, label %._crit_edge

.lr.ph:                                           ; preds = %21, %44
  %27 = load ptr, ptr %5, align 8, !tbaa !28
  %28 = call i64 @avio_seek(ptr noundef %27, i64 noundef 0, i32 noundef 1) #4
  %29 = load ptr, ptr %5, align 8, !tbaa !28
  %30 = call i64 @avio_rl64(ptr noundef %29) #4
  %31 = load ptr, ptr %5, align 8, !tbaa !28
  %32 = call i32 @avio_rl16(ptr noundef %31) #4
  %33 = icmp eq i32 %32, 0
  br i1 %33, label %44, label %34, !llvm.loop !40

34:                                               ; preds = %.lr.ph
  %35 = call ptr @ff_subtitles_queue_insert(ptr noundef %4, ptr noundef null, i64 noundef 0, i32 noundef 0) #4
  %.not38 = icmp eq ptr %35, null
  br i1 %.not38, label %.thread, label %36

36:                                               ; preds = %34
  %37 = load ptr, ptr %5, align 8, !tbaa !28
  %38 = mul nsw i32 %32, 3
  %39 = call i32 @av_get_packet(ptr noundef %37, ptr noundef nonnull %35, i32 noundef %38) #4
  %40 = icmp slt i32 %39, 0
  br i1 %40, label %.thread, label %41

41:                                               ; preds = %36
  %42 = getelementptr inbounds nuw i8, ptr %35, i64 72
  store i64 %28, ptr %42, align 8, !tbaa !42
  %43 = getelementptr inbounds nuw i8, ptr %35, i64 8
  store i64 %30, ptr %43, align 8, !tbaa !43
  br label %44

44:                                               ; preds = %.lr.ph, %41
  %45 = load ptr, ptr %5, align 8, !tbaa !28
  %46 = call i32 @avio_feof(ptr noundef %45) #4
  %.not37 = icmp eq i32 %46, 0
  br i1 %.not37, label %.lr.ph, label %._crit_edge

._crit_edge:                                      ; preds = %44, %21
  call void @ff_subtitles_queue_finalize(ptr noundef nonnull %0, ptr noundef %4) #4
  br label %.thread

.thread:                                          ; preds = %36, %34, %13, %1, %._crit_edge, %12
  %.0 = phi i32 [ -1094995529, %12 ], [ 0, %._crit_edge ], [ %7, %1 ], [ -12, %13 ], [ -12, %34 ], [ %39, %36 ]
  call void @llvm.lifetime.end.p0(i64 11, ptr nonnull %2) #4
  ret i32 %.0
}